(dp0
S'ctag'
p1
(dp2
S'hexlo'
p3
S'55495974'
p4
sS'tag'
p5
S'IgmUIYt'
p6
sS'hex'
p7
S'0x--49676D, 0x55495974'
p8
sS'hexhi'
p9
S'49676D'
p10
sS'md5'
p11
S'220994218b7be90e5814a8645f63d3f8'
p12
ssS'ptag'
p13
(dp14
g3
S'326D7133'
p15
sg5
S'kuj2mq3'
p16
sg7
S'0x--6B756A, 0x326D7133'
p17
sg9
S'6B756A'
p18
sg11
S'92e8f69aade79d13a28e410ea0e0b858'
p19
ss.